target datalayout = "e-m:e-p270:32:32-p271:32:32-p272:64:64-i64:64-i128:128-f80:128-n8:16:32:64-S128"
target triple = "x86_64-pc-linux-gnu"

%struct.evthread_lock_callbacks = type { i32, i32, ptr, ptr, ptr, ptr }
%struct.evbuffer = type { ptr, ptr, ptr, i64, i64, i64, i64, ptr, i8, i32, ptr, i32, %struct.event_callback, %struct.evbuffer_cb_queue, ptr }
%struct.event_callback = type { %struct.anon, i16, i8, i8, %union.anon, ptr }
%struct.anon = type { ptr, ptr }
%union.anon = type { ptr }
%struct.evbuffer_cb_queue = type { ptr }

@evthread_lock_fns_ = external global %struct.evthread_lock_callbacks, align 8

; Function Attrs: nounwind uwtable
define i32 @evbuffer_enable_locking(ptr noundef %0, ptr noundef %1) #0 {
  %3 = alloca i32, align 4
  %4 = alloca ptr, align 8
  %5 = alloca ptr, align 8
  store ptr %0, ptr %4, align 8
  store ptr %1, ptr %5, align 8
  %6 = load ptr, ptr %4, align 8
  %7 = getelementptr inbounds nuw %struct.evbuffer, ptr %6, i32 0, i32 7
  %8 = load ptr, ptr %7, align 8
  %9 = icmp ne ptr %8, null
  br i1 %9, label %10, label %11

10:                                               ; preds = %2
  store i32 -1, ptr %3, align 4
  br label %45

11:                                               ; preds = %2
  %12 = load ptr, ptr %5, align 8
  %13 = icmp ne ptr %12, null
  br i1 %13, label %35, label %14

14:                                               ; preds = %11
  %15 = load ptr, ptr getelementptr inbounds nuw (%struct.evthread_lock_callbacks, ptr @evthread_lock_fns_, i32 0, i32 2), align 8
  %16 = icmp ne ptr %15, null
  br i1 %16, label %17, label %20

17:                                               ; preds = %14
  %18 = load ptr, ptr getelementptr inbounds nuw (%struct.evthread_lock_callbacks, ptr @evthread_lock_fns_, i32 0, i32 2), align 8
  %19 = call ptr %18(i32 noundef 1)
  br label %21

20:                                               ; preds = %14
  br label %21

21:                                               ; preds = %20, %17
  %22 = phi ptr [ %19, %17 ], [ null, %20 ]
  store ptr %22, ptr %5, align 8
  %23 = load ptr, ptr %5, align 8
  %24 = icmp ne ptr %23, null
  br i1 %24, label %26, label %25

25:                                               ; preds = %21
  store i32 -1, ptr %3, align 4
  br label %45

26:                                               ; preds = %21
  %27 = load ptr, ptr %5, align 8
  %28 = load ptr, ptr %4, align 8
  %29 = getelementptr inbounds nuw %struct.evbuffer, ptr %28, i32 0, i32 7
  store ptr %27, ptr %29, align 8
  %30 = load ptr, ptr %4, align 8
  %31 = getelementptr inbounds nuw %struct.evbuffer, ptr %30, i32 0, i32 8
  %32 = load i8, ptr %31, align 8
  %33 = and i8 %32, -2
  %34 = or i8 %33, 1
  store i8 %34, ptr %31, align 8
  br label %44

35:                                               ; preds = %11
  %36 = load ptr, ptr %5, align 8
  %37 = load ptr, ptr %4, align 8
  %38 = getelementptr inbounds nuw %struct.evbuffer, ptr %37, i32 0, i32 7
  store ptr %36, ptr %38, align 8
  %39 = load ptr, ptr %4, align 8
  %40 = getelementptr inbounds nuw %struct.evbuffer, ptr %39, i32 0, i32 8
  %41 = load i8, ptr %40, align 8
  %42 = and i8 %41, -2
  %43 = or i8 %42, 0
  store i8 %43, ptr %40, align 8
  br label %44

44:                                               ; preds = %35, %26
  store i32 0, ptr %3, align 4
  br label %45

45:                                               ; preds = %44, %25, %10
  %46 = load i32, ptr %3, align 4
  ret i32 %46
}