; Function Attrs: nounwind uwtable
define range(i32 -1, 1) i32 @evbuffer_enable_locking(ptr noundef captures(none) %0, ptr noundef %1) local_unnamed_addr #1 {
  %3 = getelementptr inbounds nuw i8, ptr %0, i64 56
  %4 = load ptr, ptr %3, align 8
  %.not = icmp eq ptr %4, null
  br i1 %.not, label %5, label %.thread

5:                                                ; preds = %2
  %.not12 = icmp eq ptr %1, null
  br i1 %.not12, label %6, label %14

6:                                                ; preds = %5
  %7 = load ptr, ptr getelementptr inbounds nuw (i8, ptr @evthread_lock_fns_, i64 8), align 8
  %.not13 = icmp eq ptr %7, null
  br i1 %.not13, label %.thread, label %8

8:                                                ; preds = %6
  %9 = tail call ptr %7(i32 noundef 1) #16
  %.not14 = icmp eq ptr %9, null
  br i1 %.not14, label %.thread, label %10

10:                                               ; preds = %8
  store ptr %9, ptr %3, align 8
  %11 = getelementptr inbounds nuw i8, ptr %0, i64 64
  %12 = load i8, ptr %11, align 8
  %13 = or i8 %12, 1
  store i8 %13, ptr %11, align 8
  br label %.thread

14:                                               ; preds = %5
  store ptr %1, ptr %3, align 8
  %15 = getelementptr inbounds nuw i8, ptr %0, i64 64
  %16 = load i8, ptr %15, align 8
  %17 = and i8 %16, -2
  store i8 %17, ptr %15, align 8
  br label %.thread

.thread:                                          ; preds = %6, %10, %14, %8, %2
  %.0 = phi i32 [ -1, %2 ], [ -1, %8 ], [ 0, %14 ], [ 0, %10 ], [ -1, %6 ]
  ret i32 %.0
}